; Function Attrs: nofree norecurse nosync nounwind memory(argmem: readwrite) uwtable
define void @PMIx_Load_procid(ptr noundef writeonly captures(none) initializes((0, 256)) %0, ptr noundef readonly captures(address_is_null) %1, i32 noundef %2) local_unnamed_addr #0 {
  tail call void @llvm.memset.p0.i64(ptr noundef nonnull align 1 dereferenceable(256) %0, i8 0, i64 256, i1 false)
  %.not.i.i = icmp eq ptr %1, null
  br i1 %.not.i.i, label %pmix_bfrops_base_tma_load_procid.exit, label %.lr.ph.i.i.i

.lr.ph.i.i.i:                                     ; preds = %3, %6
  %.012.i.i.i = phi i64 [ %7, %6 ], [ 0, %3 ]
  %.0811.i.i.i = phi ptr [ %9, %6 ], [ %0, %3 ]
  %.0910.i.i.i = phi ptr [ %8, %6 ], [ %1, %3 ]
  %4 = load i8, ptr %.0910.i.i.i, align 1, !tbaa !3
  store i8 %4, ptr %.0811.i.i.i, align 1, !tbaa !3
  %5 = icmp eq i8 %4, 0
  br i1 %5, label %pmix_strncpy.exit.i.i, label %6

6:                                                ; preds = %.lr.ph.i.i.i
  %7 = add nuw nsw i64 %.012.i.i.i, 1
  %8 = getelementptr inbounds nuw i8, ptr %.0910.i.i.i, i64 1
  %9 = getelementptr inbounds nuw i8, ptr %.0811.i.i.i, i64 1
  %exitcond.not.i.i.i = icmp eq i64 %7, 255
  br i1 %exitcond.not.i.i.i, label %pmix_strncpy.exit.i.i, label %.lr.ph.i.i.i, !llvm.loop !6

pmix_strncpy.exit.i.i:                            ; preds = %6, %.lr.ph.i.i.i
  %.08.lcssa.i.i.i = phi ptr [ %.0811.i.i.i, %.lr.ph.i.i.i ], [ %9, %6 ]
  store i8 0, ptr %.08.lcssa.i.i.i, align 1, !tbaa !3
  br label %pmix_bfrops_base_tma_load_procid.exit

pmix_bfrops_base_tma_load_procid.exit:            ; preds = %3, %pmix_strncpy.exit.i.i
  %10 = getelementptr inbounds nuw i8, ptr %0, i64 256
  store i32 %2, ptr %10, align 4, !tbaa !9
  ret void
}